#include <math.h>
#include <stdio.h>
#include <stdlib.h>
#include <string.h>

int main()
{
    int m[5000];
    int n,i,j,k,u,s=0;
    int l=0;
    m[0]=2;
    scanf("%d",&n);
    for (i=3,j=1;i<=n;i++)
        {
           for(k=0;m[k]*m[k]<i;k++)              
           if (i%m[k]==0) break;
           if (m[k]*m[k]>i)
           {  
             m[j]=i;
             j++;
           }
       }
    while (s<i/2)
    {
      u=m[s+1]-m[s];
      if (u==2)
      {
         printf("%d %d\n",m[s],m[s+1]);
         l=l+1;
      }
      s++;
    }
    if (l==0)
    printf("empty\n");
	return 0;
}
